target datalayout = "e-m:e-p270:32:32-p271:32:32-p272:64:64-i64:64-i128:128-f80:128-n8:16:32:64-S128"
target triple = "x86_64-pc-linux-gnu"

%struct.Type_ = type { i32, ptr, ptr, ptr, %union.anon, ptr, ptr, %union.anon.1 }
%union.anon = type { ptr }
%union.anon.1 = type { %struct.TypeFunction }
%struct.TypeFunction = type { ptr, ptr, ptr }

@type_ichar = dso_local global ptr getelementptr (i8, ptr @t, i64 160), align 8
@type_short = dso_local global ptr getelementptr (i8, ptr @t, i64 240), align 8
@type_int = dso_local global ptr getelementptr (i8, ptr @t, i64 320), align 8
@type_long = dso_local global ptr getelementptr (i8, ptr @t, i64 400), align 8
@type_i128 = dso_local global ptr getelementptr (i8, ptr @t, i64 480), align 8
@.str = private unnamed_addr constant [36 x i8] c"FATAL ERROR %s -> in %s @ in %s:%d \00", align 1
@.str.1 = private unnamed_addr constant [19 x i8] c"Illegal bitsize %d\00", align 1
@__func__.type_int_signed_by_bitsize = private unnamed_addr constant [27 x i8] c"type_int_signed_by_bitsize\00", align 1
@.str.2 = private unnamed_addr constant [106 x i8] c"generated/home/dtcxzyw/WorkSpace/Projects/compilers/llvm-opt-benchmark/bench/c3c/c3c/src/compiler/types.c\00", align 1
@.str.17 = private unnamed_addr constant [22 x i8] c"Should be unreachable\00", align 1
@__func__.type_find_max_num_type = private unnamed_addr constant [23 x i8] c"type_find_max_num_type\00", align 1

; Function Attrs: nounwind uwtable
define dso_local ptr @type_int_signed_by_bitsize(i64 noundef %0) #0 {
  %2 = alloca ptr, align 8
  %3 = alloca i64, align 8
  store i64 %0, ptr %3, align 8
  %4 = load i64, ptr %3, align 8
  switch i64 %4, label %15 [
    i64 8, label %5
    i64 16, label %7
    i64 32, label %9
    i64 64, label %11
    i64 128, label %13
  ]

5:                                                ; preds = %1
  %6 = load ptr, ptr @type_ichar, align 8
  store ptr %6, ptr %2, align 8
  br label %19

7:                                                ; preds = %1
  %8 = load ptr, ptr @type_short, align 8
  store ptr %8, ptr %2, align 8
  br label %19

9:                                                ; preds = %1
  %10 = load ptr, ptr @type_int, align 8
  store ptr %10, ptr %2, align 8
  br label %19

11:                                               ; preds = %1
  %12 = load ptr, ptr @type_long, align 8
  store ptr %12, ptr %2, align 8
  br label %19

13:                                               ; preds = %1
  %14 = load ptr, ptr @type_i128, align 8
  store ptr %14, ptr %2, align 8
  br label %19

15:                                               ; preds = %1
  br label %16

16:                                               ; preds = %15
  %17 = load i64, ptr %3, align 8
  call void (ptr, ...) @error_exit(ptr noundef @.str, ptr noundef @.str.1, ptr noundef @__func__.type_int_signed_by_bitsize, ptr noundef @.str.2, i32 noundef 83, i64 noundef %17) #7
  unreachable

18:                                               ; No predecessors!
  br label %19

19:                                               ; preds = %18, %13, %11, %9, %7, %5
  %20 = load ptr, ptr %2, align 8
  ret ptr %20
}

; Function Attrs: nounwind uwtable
define dso_local ptr @type_find_max_num_type(ptr noundef %0, ptr noundef %1) #0 {
  %3 = alloca i32, align 4
  %4 = alloca i32, align 4
  %5 = alloca ptr, align 8
  %6 = alloca ptr, align 8
  %7 = alloca ptr, align 8
  %8 = alloca i32, align 4
  %9 = alloca i32, align 4
  %10 = alloca i32, align 4
  %11 = alloca i32, align 4
  store ptr %0, ptr %6, align 8
  store ptr %1, ptr %7, align 8
  %12 = load ptr, ptr %6, align 8
  %13 = getelementptr inbounds %struct.Type_, ptr %12, i32 0, i32 0
  %14 = load i32, ptr %13, align 8
  store i32 %14, ptr %8, align 4
  %15 = load ptr, ptr %7, align 8
  %16 = getelementptr inbounds %struct.Type_, ptr %15, i32 0, i32 0
  %17 = load i32, ptr %16, align 8
  store i32 %17, ptr %9, align 4
  %18 = load i32, ptr %9, align 4
  %19 = icmp ult i32 %18, 3
  br i1 %19, label %23, label %20

20:                                               ; preds = %2
  %21 = load i32, ptr %9, align 4
  %22 = icmp ugt i32 %21, 17
  br i1 %22, label %23, label %24

23:                                               ; preds = %20, %2
  store ptr null, ptr %5, align 8
  br label %80

24:                                               ; preds = %20
  %25 = load i32, ptr %9, align 4
  %26 = icmp uge i32 %25, 13
  br i1 %26, label %27, label %38

27:                                               ; preds = %24
  %28 = load i32, ptr %9, align 4
  %29 = icmp ule i32 %28, 17
  br i1 %29, label %30, label %38

30:                                               ; preds = %27
  %31 = load i32, ptr %9, align 4
  switch i32 %31, label %34 [
    i32 13, label %32
    i32 15, label %32
    i32 16, label %32
    i32 17, label %32
  ]

32:                                               ; preds = %30, %30, %30, %30
  %33 = load ptr, ptr %7, align 8
  store ptr %33, ptr %5, align 8
  br label %80

34:                                               ; preds = %30
  br label %35

35:                                               ; preds = %34
  call void (ptr, ...) @error_exit(ptr noundef @.str, ptr noundef @.str.17, ptr noundef @__func__.type_find_max_num_type, ptr noundef @.str.2, i32 noundef 1957) #7
  unreachable

36:                                               ; No predecessors!
  br label %37

37:                                               ; preds = %36
  br label %38

38:                                               ; preds = %37, %27, %24
  %39 = load ptr, ptr %7, align 8
  %40 = getelementptr inbounds %struct.Type_, ptr %39, i32 0, i32 7
  %41 = load i32, ptr %40, align 8
  %42 = and i32 %41, 255
  store i32 %42, ptr %10, align 4
  %43 = load ptr, ptr %6, align 8
  %44 = getelementptr inbounds %struct.Type_, ptr %43, i32 0, i32 7
  %45 = load i32, ptr %44, align 8
  %46 = and i32 %45, 255
  store i32 %46, ptr %11, align 4
  %47 = load i32, ptr %9, align 4
  store i32 %47, ptr %3, align 4
  %48 = load i32, ptr %3, align 4
  %49 = icmp uge i32 %48, 8
  br i1 %49, label %50, label %53

50:                                               ; preds = %38
  %51 = load i32, ptr %3, align 4
  %52 = icmp ule i32 %51, 12
  br label %53

53:                                               ; preds = %50, %38
  %54 = phi i1 [ false, %38 ], [ %52, %50 ]
  br i1 %54, label %55, label %78

55:                                               ; preds = %53
  %56 = load i32, ptr %8, align 4
  store i32 %56, ptr %4, align 4
  %57 = load i32, ptr %4, align 4
  %58 = icmp uge i32 %57, 3
  br i1 %58, label %59, label %62

59:                                               ; preds = %55
  %60 = load i32, ptr %4, align 4
  %61 = icmp ult i32 %60, 8
  br label %62

62:                                               ; preds = %59, %55
  %63 = phi i1 [ false, %55 ], [ %61, %59 ]
  br i1 %63, label %64, label %76

64:                                               ; preds = %62
  %65 = load i32, ptr %11, align 4
  %66 = load i32, ptr %10, align 4
  %67 = icmp uge i32 %65, %66
  br i1 %67, label %68, label %70

68:                                               ; preds = %64
  %69 = load ptr, ptr %6, align 8
  br label %74

70:                                               ; preds = %64
  %71 = load i32, ptr %10, align 4
  %72 = zext i32 %71 to i64
  %73 = call ptr @type_int_signed_by_bitsize(i64 noundef %72)
  br label %74

74:                                               ; preds = %70, %68
  %75 = phi ptr [ %69, %68 ], [ %73, %70 ]
  store ptr %75, ptr %5, align 8
  br label %80

76:                                               ; preds = %62
  %77 = load ptr, ptr %7, align 8
  store ptr %77, ptr %5, align 8
  br label %80

78:                                               ; preds = %53
  %79 = load ptr, ptr %7, align 8
  store ptr %79, ptr %5, align 8
  br label %80

80:                                               ; preds = %78, %76, %74, %32, %23
  %81 = load ptr, ptr %5, align 8
  ret ptr %81
}