; Function Attrs: nounwind uwtable
define dso_local ptr @type_find_max_num_type(ptr noundef readonly %0, ptr noundef readonly %1) local_unnamed_addr #0 {
  %3 = load i32, ptr %0, align 8
  %4 = load i32, ptr %1, align 8
  %5 = add i32 %4, -18
  %or.cond = icmp ult i32 %5, -15
  br i1 %or.cond, label %28, label %6

6:                                                ; preds = %2
  %7 = icmp ugt i32 %4, 12
  br i1 %7, label %8, label %10

8:                                                ; preds = %6
  switch i32 %4, label %9 [
    i32 13, label %28
    i32 15, label %28
    i32 16, label %28
    i32 17, label %28
  ]

9:                                                ; preds = %8
  tail call void (ptr, ...) @error_exit(ptr noundef nonnull @.str, ptr noundef nonnull @.str.17, ptr noundef nonnull @__func__.type_find_max_num_type, ptr noundef nonnull @.str.2, i32 noundef 1957) #13
  unreachable

10:                                               ; preds = %6
  %11 = getelementptr inbounds i8, ptr %1, i64 56
  %12 = load i32, ptr %11, align 8
  %13 = and i32 %12, 255
  %14 = icmp ugt i32 %4, 7
  %15 = add i32 %3, -3
  %16 = icmp ult i32 %15, 5
  %or.cond28 = select i1 %14, i1 %16, i1 false
  br i1 %or.cond28, label %17, label %28

17:                                               ; preds = %10
  %18 = getelementptr inbounds i8, ptr %0, i64 56
  %19 = load i32, ptr %18, align 8
  %20 = and i32 %19, 255
  %.not = icmp ult i32 %20, %13
  br i1 %.not, label %21, label %28

21:                                               ; preds = %17
  %trunc = trunc i32 %12 to i8
  switch i8 %trunc, label %26 [
    i8 8, label %type_int_signed_by_bitsize.exit
    i8 16, label %22
    i8 32, label %23
    i8 64, label %24
    i8 -128, label %25
  ]

22:                                               ; preds = %21
  br label %type_int_signed_by_bitsize.exit

23:                                               ; preds = %21
  br label %type_int_signed_by_bitsize.exit

24:                                               ; preds = %21
  br label %type_int_signed_by_bitsize.exit

25:                                               ; preds = %21
  br label %type_int_signed_by_bitsize.exit

26:                                               ; preds = %21
  %27 = zext nneg i32 %13 to i64
  tail call void (ptr, ...) @error_exit(ptr noundef nonnull @.str, ptr noundef nonnull @.str.1, ptr noundef nonnull @__func__.type_int_signed_by_bitsize, ptr noundef nonnull @.str.2, i32 noundef 83, i64 noundef %27) #13
  unreachable

type_int_signed_by_bitsize.exit:                  ; preds = %21, %22, %23, %24, %25
  %.0.in.i = phi ptr [ @type_i128, %25 ], [ @type_long, %24 ], [ @type_int, %23 ], [ @type_short, %22 ], [ @type_ichar, %21 ]
  %.0.i = load ptr, ptr %.0.in.i, align 8
  br label %28

28:                                               ; preds = %10, %type_int_signed_by_bitsize.exit, %17, %8, %8, %8, %8, %2
  %.0 = phi ptr [ null, %2 ], [ %1, %8 ], [ %1, %8 ], [ %1, %8 ], [ %1, %8 ], [ %.0.i, %type_int_signed_by_bitsize.exit ], [ %0, %17 ], [ %1, %10 ]
  ret ptr %.0
}